Certificate:
    Data:
        Version: 3 (0x2)
        Serial Number: 1 (0x1)
        Signature Algorithm: md5WithRSAEncryption
        Issuer: C=EU, O=StratusLab, OU=Test, CN=TestCA
        Validity
            Not Before: Jun 14 04:23:35 2011 GMT
            Not After : Jun 19 04:23:35 2011 GMT
        Subject: C=EU, O=StratusLab, OU=Test, CN=John Smith
        Subject Public Key Info:
            Public Key Algorithm: rsaEncryption
            RSA Public Key: (2048 bit)
                Modulus (2048 bit):
                    00:c4:29:f5:84:da:c6:4f:52:5e:af:1b:b3:88:85:
                    ef:c3:1e:a6:45:f1:35:05:0c:a4:60:c3:58:4e:26:
                    04:97:48:2c:2b:ff:6f:ee:96:df:52:4e:e3:49:df:
                    ef:22:f1:4d:67:f5:13:61:72:ed:39:a2:0d:18:b8:
                    64:36:1b:47:63:90:e6:79:bb:9c:c9:78:72:6b:9b:
                    c7:f2:d4:80:b1:59:25:c7:62:67:ad:69:35:ab:57:
                    81:02:32:c3:f3:77:a0:ca:dc:3d:2f:43:ee:e1:62:
                    f9:ab:5e:1a:12:b4:f9:0d:b7:ba:df:5b:ef:cb:d3:
                    e4:b4:2d:05:f7:33:68:82:f6:9e:d2:5f:c9:b9:68:
                    d6:8f:58:05:2e:5e:c0:83:82:24:20:24:b6:b2:bc:
                    a4:de:16:41:14:ea:af:ce:dc:6c:6f:96:d5:a1:0c:
                    73:bb:38:be:a7:2f:ec:b0:1d:cc:bb:d9:bc:da:c3:
                    a1:83:d4:cd:bd:92:54:4a:17:59:a5:ee:be:81:2f:
                    8f:c6:e8:9b:49:9a:a3:ad:65:05:e4:96:99:10:bb:
                    74:4b:02:3f:f1:ea:d7:fb:50:95:2d:93:f3:1c:b8:
                    8f:21:13:f6:74:3c:f9:d7:45:05:df:35:bf:35:29:
                    13:17:1e:17:5b:70:fc:4b:ae:6a:b1:66:86:8e:f5:
                    60:b7
                Exponent: 65537 (0x10001)
        X509v3 extensions:
            X509v3 Basic Constraints: 
                CA:FALSE
            Netscape Cert Type: 
                SSL Client, S/MIME, Object Signing
            X509v3 Key Usage: critical
                Digital Signature, Non Repudiation, Key Encipherment, Data Encipherment
            X509v3 Subject Key Identifier: 
                79:EC:0F:E2:59:EB:FE:09:8B:5F:72:CC:55:D5:12:8F:F0:CB:61:77
            X509v3 Authority Key Identifier: 
                keyid:BA:53:37:0E:FF:C7:5D:61:13:4C:75:99:03:2E:04:FB:06:CD:94:8D
                DirName:/C=EU/O=StratusLab/OU=Test/CN=TestCA
                serial:E4:3D:B5:7E:83:18:9A:60

    Signature Algorithm: md5WithRSAEncryption
        5c:dc:58:70:ee:37:9c:06:f7:6f:9e:a3:ab:d1:eb:e1:10:1a:
        26:1f:00:14:d8:cc:be:20:6a:a7:bf:36:e4:1d:ee:28:e6:69:
        10:0e:29:bd:ea:9e:c8:c2:b7:a3:16:ff:c7:fc:c2:66:bd:fc:
        db:8a:1d:68:84:6c:07:c7:7e:04:e3:85:f6:c2:46:70:f1:ef:
        3b:86:82:fb:9a:47:ca:59:3f:5e:de:a4:d4:b1:41:43:87:a7:
        c2:2f:62:9a:72:af:24:fd:e6:9a:c8:85:47:80:e6:fd:4d:9c:
        58:97:f1:17:86:3f:85:4d:34:67:c8:b1:6d:75:ee:ab:7e:8f:
        e8:1d
-----BEGIN CERTIFICATE-----
MIIDRzCCArCgAwIBAgIBATANBgkqhkiG9w0BAQQFADBCMQswCQYDVQQGEwJFVTET
MBEGA1UEChMKU3RyYXR1c0xhYjENMAsGA1UECxMEVGVzdDEPMA0GA1UEAxMGVGVz
dENBMB4XDTExMDYxNDA0MjMzNVoXDTExMDYxOTA0MjMzNVowRjELMAkGA1UEBhMC
RVUxEzARBgNVBAoTClN0cmF0dXNMYWIxDTALBgNVBAsTBFRlc3QxEzARBgNVBAMT
CkpvaG4gU21pdGgwggEiMA0GCSqGSIb3DQEBAQUAA4IBDwAwggEKAoIBAQDEKfWE
2sZPUl6vG7OIhe/DHqZF8TUFDKRgw1hOJgSXSCwr/2/ult9STuNJ3+8i8U1n9RNh
cu05og0YuGQ2G0djkOZ5u5zJeHJrm8fy1ICxWSXHYmetaTWrV4ECMsPzd6DK3D0v
Q+7hYvmrXhoStPkNt7rfW+/L0+S0LQX3M2iC9p7SX8m5aNaPWAUuXsCDgiQgJLay
vKTeFkEU6q/O3GxvltWhDHO7OL6nL+ywHcy72bzaw6GD1M29klRKF1ml7r6BL4/G
6JtJmqOtZQXklpkQu3RLAj/x6tf7UJUtk/McuI8hE/Z0PPnXRQXfNb81KRMXHhdb
cPxLrmqxZoaO9WC3AgMBAAGjgcQwgcEwCQYDVR0TBAIwADARBglghkgBhvhCAQEE
BAMCBLAwDgYDVR0PAQH/BAQDAgTwMB0GA1UdDgQWBBR57A/iWev+CYtfcsxV1RKP
8MthdzByBgNVHSMEazBpgBS6UzcO/8ddYRNMdZkDLgT7Bs2UjaFGpEQwQjELMAkG
A1UEBhMCRVUxEzARBgNVBAoTClN0cmF0dXNMYWIxDTALBgNVBAsTBFRlc3QxDzAN
BgNVBAMTBlRlc3RDQYIJAOQ9tX6DGJpgMA0GCSqGSIb3DQEBBAUAA4GBAFzcWHDu
N5wG92+eo6vR6+EQGiYfABTYzL4gaqe/NuQd7ijmaRAOKb3qnsjCt6MW/8f8wma9
/NuKHWiEbAfHfgTjhfbCRnDx7zuGgvuaR8pZP17epNSxQUOHp8IvYppyryT95prI
hUeA5v1NnFiX8ReGP4VNNGfIsW117qt+j+gd
-----END CERTIFICATE-----
